target datalayout = "e-m:e-p270:32:32-p271:32:32-p272:64:64-i64:64-i128:128-f80:128-n8:16:32:64-S128"
target triple = "x86_64-unknown-linux-gnu"

%"class.OpenColorIO_v2_4dev::RangeOpData" = type <{ %"class.OpenColorIO_v2_4dev::OpData", double, double, double, double, double, double, i32, i32, i32, [4 x i8] }>
%"class.OpenColorIO_v2_4dev::OpData" = type { ptr, %"class.std::mutex", %"class.OpenColorIO_v2_4dev::FormatMetadataImpl" }
%"class.std::mutex" = type { %"class.std::__mutex_base" }
%"class.std::__mutex_base" = type { %union.pthread_mutex_t }
%union.pthread_mutex_t = type { %struct.__pthread_mutex_s }
%struct.__pthread_mutex_s = type { i32, i32, i32, i32, i32, i16, i16, %struct.__pthread_internal_list }
%struct.__pthread_internal_list = type { ptr, ptr }
%"class.OpenColorIO_v2_4dev::FormatMetadataImpl" = type { %"class.OpenColorIO_v2_4dev::FormatMetadata", %"class.std::__cxx11::basic_string", %"class.std::__cxx11::basic_string", %"class.std::vector", %"class.std::vector.3" }
%"class.OpenColorIO_v2_4dev::FormatMetadata" = type { ptr }
%"class.std::__cxx11::basic_string" = type { %"struct.std::__cxx11::basic_string<char>::_Alloc_hider", i64, %union.anon }
%"struct.std::__cxx11::basic_string<char>::_Alloc_hider" = type { ptr }
%union.anon = type { i64, [8 x i8] }
%"class.std::vector" = type { %"struct.std::_Vector_base" }
%"struct.std::_Vector_base" = type { %"struct.std::_Vector_base<std::pair<std::__cxx11::basic_string<char>, std::__cxx11::basic_string<char>>, std::allocator<std::pair<std::__cxx11::basic_string<char>, std::__cxx11::basic_string<char>>>>::_Vector_impl" }
%"struct.std::_Vector_base<std::pair<std::__cxx11::basic_string<char>, std::__cxx11::basic_string<char>>, std::allocator<std::pair<std::__cxx11::basic_string<char>, std::__cxx11::basic_string<char>>>>::_Vector_impl" = type { %"struct.std::_Vector_base<std::pair<std::__cxx11::basic_string<char>, std::__cxx11::basic_string<char>>, std::allocator<std::pair<std::__cxx11::basic_string<char>, std::__cxx11::basic_string<char>>>>::_Vector_impl_data" }
%"struct.std::_Vector_base<std::pair<std::__cxx11::basic_string<char>, std::__cxx11::basic_string<char>>, std::allocator<std::pair<std::__cxx11::basic_string<char>, std::__cxx11::basic_string<char>>>>::_Vector_impl_data" = type { ptr, ptr, ptr }
%"class.std::vector.3" = type { %"struct.std::_Vector_base.4" }
%"struct.std::_Vector_base.4" = type { %"struct.std::_Vector_base<OpenColorIO_v2_4dev::FormatMetadataImpl, std::allocator<OpenColorIO_v2_4dev::FormatMetadataImpl>>::_Vector_impl" }
%"struct.std::_Vector_base<OpenColorIO_v2_4dev::FormatMetadataImpl, std::allocator<OpenColorIO_v2_4dev::FormatMetadataImpl>>::_Vector_impl" = type { %"struct.std::_Vector_base<OpenColorIO_v2_4dev::FormatMetadataImpl, std::allocator<OpenColorIO_v2_4dev::FormatMetadataImpl>>::_Vector_impl_data" }
%"struct.std::_Vector_base<OpenColorIO_v2_4dev::FormatMetadataImpl, std::allocator<OpenColorIO_v2_4dev::FormatMetadataImpl>>::_Vector_impl_data" = type { ptr, ptr, ptr }

; Function Attrs: mustprogress nounwind uwtable
define linkonce_odr noundef zeroext i1 @_ZSt5isnanf(float noundef %__x) #5 comdat {
entry:
  %__x.addr = alloca float, align 4
  store float %__x, ptr %__x.addr, align 4
  %0 = load float, ptr %__x.addr, align 4
  %1 = call i1 @llvm.is.fpclass.f32(float %0, i32 3)
  ret i1 %1
}

; Function Attrs: mustprogress uwtable
define linkonce_odr hidden noundef zeroext i1 @_ZN19OpenColorIO_v2_4dev5IsNanIfEEbT_(float noundef %val) #4 comdat {
entry:
  %val.addr = alloca float, align 4
  store float %val, ptr %val.addr, align 4
  %0 = load float, ptr %val.addr, align 4
  %call = call noundef zeroext i1 @_ZSt5isnanf(float noundef %0)
  ret i1 %call
}

; Function Attrs: mustprogress nounwind uwtable
define hidden noundef zeroext i1 @_ZN19OpenColorIO_v2_4dev11RangeOpData12FloatsDifferEdd(double noundef %x1, double noundef %x2) #5 align 2 {
entry:
  %x1.addr = alloca double, align 8
  %x2.addr = alloca double, align 8
  %different = alloca i8, align 1
  store double %x1, ptr %x1.addr, align 8
  store double %x2, ptr %x2.addr, align 8
  store i8 0, ptr %different, align 1
  %0 = load double, ptr %x1.addr, align 8
  %1 = call double @llvm.fabs.f64(double %0)
  %cmp = fcmp olt double %1, 1.000000e-03
  br i1 %cmp, label %if.then, label %if.else

if.then:                                          ; preds = %entry
  %2 = load double, ptr %x1.addr, align 8
  %3 = load double, ptr %x2.addr, align 8
  %sub = fsub double %2, %3
  %4 = call double @llvm.fabs.f64(double %sub)
  %cmp1 = fcmp ogt double %4, 0x3EB0C6F7A0B5ED8D
  %frombool = zext i1 %cmp1 to i8
  store i8 %frombool, ptr %different, align 1
  br label %if.end

if.else:                                          ; preds = %entry
  %5 = load double, ptr %x2.addr, align 8
  %6 = load double, ptr %x1.addr, align 8
  %div = fdiv double %5, %6
  %sub2 = fsub double 1.000000e+00, %div
  %7 = call double @llvm.fabs.f64(double %sub2)
  %cmp3 = fcmp ogt double %7, 0x3EB0C6F7A0B5ED8D
  %frombool4 = zext i1 %cmp3 to i8
  store i8 %frombool4, ptr %different, align 1
  br label %if.end

if.end:                                           ; preds = %if.else, %if.then
  %8 = load i8, ptr %different, align 1
  %tobool = trunc i8 %8 to i1
  ret i1 %tobool
}

; Function Attrs: mustprogress uwtable
define hidden noundef zeroext i1 @_ZNK19OpenColorIO_v2_4dev11RangeOpData10maxIsEmptyEv(ptr noundef nonnull align 8 dereferenceable(228) %this) #4 align 2 {
entry:
  %this.addr = alloca ptr, align 8
  store ptr %this, ptr %this.addr, align 8
  %this1 = load ptr, ptr %this.addr, align 8
  %m_maxInValue = getelementptr inbounds %"class.OpenColorIO_v2_4dev::RangeOpData", ptr %this1, i32 0, i32 2
  %0 = load double, ptr %m_maxInValue, align 8
  %conv = fptrunc double %0 to float
  %call = call noundef zeroext i1 @_ZN19OpenColorIO_v2_4dev5IsNanIfEEbT_(float noundef %conv)
  %conv2 = zext i1 %call to i32
  %cmp = icmp ne i32 %conv2, 0
  ret i1 %cmp
}

; Function Attrs: mustprogress uwtable
define hidden noundef zeroext i1 @_ZNK19OpenColorIO_v2_4dev11RangeOpData10minIsEmptyEv(ptr noundef nonnull align 8 dereferenceable(228) %this) #4 align 2 {
entry:
  %this.addr = alloca ptr, align 8
  store ptr %this, ptr %this.addr, align 8
  %this1 = load ptr, ptr %this.addr, align 8
  %m_minInValue = getelementptr inbounds %"class.OpenColorIO_v2_4dev::RangeOpData", ptr %this1, i32 0, i32 1
  %0 = load double, ptr %m_minInValue, align 8
  %conv = fptrunc double %0 to float
  %call = call noundef zeroext i1 @_ZN19OpenColorIO_v2_4dev5IsNanIfEEbT_(float noundef %conv)
  %conv2 = zext i1 %call to i32
  %cmp = icmp ne i32 %conv2, 0
  ret i1 %cmp
}

; Function Attrs: mustprogress uwtable
define hidden noundef zeroext i1 @_ZNK19OpenColorIO_v2_4dev11RangeOpData6equalsERKNS_6OpDataE(ptr noundef nonnull align 8 dereferenceable(228) %this, ptr noundef nonnull align 8 dereferenceable(168) %other) unnamed_addr #4 align 2 {
entry:
  %retval = alloca i1, align 1
  %this.addr = alloca ptr, align 8
  %other.addr = alloca ptr, align 8
  %rop = alloca ptr, align 8
  store ptr %this, ptr %this.addr, align 8
  store ptr %other, ptr %other.addr, align 8
  %this1 = load ptr, ptr %this.addr, align 8
  %0 = load ptr, ptr %other.addr, align 8
  %call = call noundef zeroext i1 @_ZNK19OpenColorIO_v2_4dev6OpData6equalsERKS0_(ptr noundef nonnull align 8 dereferenceable(168) %this1, ptr noundef nonnull align 8 dereferenceable(168) %0)
  br i1 %call, label %if.end, label %if.then

if.then:                                          ; preds = %entry
  store i1 false, ptr %retval, align 1
  br label %return

if.end:                                           ; preds = %entry
  %1 = load ptr, ptr %other.addr, align 8
  store ptr %1, ptr %rop, align 8
  %m_direction = getelementptr inbounds %"class.OpenColorIO_v2_4dev::RangeOpData", ptr %this1, i32 0, i32 9
  %2 = load i32, ptr %m_direction, align 8
  %3 = load ptr, ptr %rop, align 8
  %m_direction2 = getelementptr inbounds %"class.OpenColorIO_v2_4dev::RangeOpData", ptr %3, i32 0, i32 9
  %4 = load i32, ptr %m_direction2, align 8
  %cmp = icmp ne i32 %2, %4
  br i1 %cmp, label %if.then3, label %if.end4

if.then3:                                         ; preds = %if.end
  store i1 false, ptr %retval, align 1
  br label %return

if.end4:                                          ; preds = %if.end
  %call5 = call noundef zeroext i1 @_ZNK19OpenColorIO_v2_4dev11RangeOpData10minIsEmptyEv(ptr noundef nonnull align 8 dereferenceable(228) %this1)
  %conv = zext i1 %call5 to i32
  %5 = load ptr, ptr %rop, align 8
  %call6 = call noundef zeroext i1 @_ZNK19OpenColorIO_v2_4dev11RangeOpData10minIsEmptyEv(ptr noundef nonnull align 8 dereferenceable(228) %5)
  %conv7 = zext i1 %call6 to i32
  %cmp8 = icmp ne i32 %conv, %conv7
  br i1 %cmp8, label %if.then14, label %lor.lhs.false

lor.lhs.false:                                    ; preds = %if.end4
  %call9 = call noundef zeroext i1 @_ZNK19OpenColorIO_v2_4dev11RangeOpData10maxIsEmptyEv(ptr noundef nonnull align 8 dereferenceable(228) %this1)
  %conv10 = zext i1 %call9 to i32
  %6 = load ptr, ptr %rop, align 8
  %call11 = call noundef zeroext i1 @_ZNK19OpenColorIO_v2_4dev11RangeOpData10maxIsEmptyEv(ptr noundef nonnull align 8 dereferenceable(228) %6)
  %conv12 = zext i1 %call11 to i32
  %cmp13 = icmp ne i32 %conv10, %conv12
  br i1 %cmp13, label %if.then14, label %if.end15

if.then14:                                        ; preds = %lor.lhs.false, %if.end4
  store i1 false, ptr %retval, align 1
  br label %return

if.end15:                                         ; preds = %lor.lhs.false
  %call16 = call noundef zeroext i1 @_ZNK19OpenColorIO_v2_4dev11RangeOpData10minIsEmptyEv(ptr noundef nonnull align 8 dereferenceable(228) %this1)
  br i1 %call16, label %if.end25, label %land.lhs.true

land.lhs.true:                                    ; preds = %if.end15
  %7 = load ptr, ptr %rop, align 8
  %call17 = call noundef zeroext i1 @_ZNK19OpenColorIO_v2_4dev11RangeOpData10minIsEmptyEv(ptr noundef nonnull align 8 dereferenceable(228) %7)
  br i1 %call17, label %if.end25, label %land.lhs.true18

land.lhs.true18:                                  ; preds = %land.lhs.true
  %m_minInValue = getelementptr inbounds %"class.OpenColorIO_v2_4dev::RangeOpData", ptr %this1, i32 0, i32 1
  %8 = load double, ptr %m_minInValue, align 8
  %9 = load ptr, ptr %rop, align 8
  %m_minInValue19 = getelementptr inbounds %"class.OpenColorIO_v2_4dev::RangeOpData", ptr %9, i32 0, i32 1
  %10 = load double, ptr %m_minInValue19, align 8
  %call20 = call noundef zeroext i1 @_ZN19OpenColorIO_v2_4dev11RangeOpData12FloatsDifferEdd(double noundef %8, double noundef %10)
  br i1 %call20, label %if.then24, label %lor.lhs.false21

lor.lhs.false21:                                  ; preds = %land.lhs.true18
  %m_minOutValue = getelementptr inbounds %"class.OpenColorIO_v2_4dev::RangeOpData", ptr %this1, i32 0, i32 3
  %11 = load double, ptr %m_minOutValue, align 8
  %12 = load ptr, ptr %rop, align 8
  %m_minOutValue22 = getelementptr inbounds %"class.OpenColorIO_v2_4dev::RangeOpData", ptr %12, i32 0, i32 3
  %13 = load double, ptr %m_minOutValue22, align 8
  %call23 = call noundef zeroext i1 @_ZN19OpenColorIO_v2_4dev11RangeOpData12FloatsDifferEdd(double noundef %11, double noundef %13)
  br i1 %call23, label %if.then24, label %if.end25

if.then24:                                        ; preds = %lor.lhs.false21, %land.lhs.true18
  store i1 false, ptr %retval, align 1
  br label %return

if.end25:                                         ; preds = %lor.lhs.false21, %land.lhs.true, %if.end15
  %call26 = call noundef zeroext i1 @_ZNK19OpenColorIO_v2_4dev11RangeOpData10maxIsEmptyEv(ptr noundef nonnull align 8 dereferenceable(228) %this1)
  br i1 %call26, label %if.end36, label %land.lhs.true27

land.lhs.true27:                                  ; preds = %if.end25
  %14 = load ptr, ptr %rop, align 8
  %call28 = call noundef zeroext i1 @_ZNK19OpenColorIO_v2_4dev11RangeOpData10maxIsEmptyEv(ptr noundef nonnull align 8 dereferenceable(228) %14)
  br i1 %call28, label %if.end36, label %land.lhs.true29

land.lhs.true29:                                  ; preds = %land.lhs.true27
  %m_maxInValue = getelementptr inbounds %"class.OpenColorIO_v2_4dev::RangeOpData", ptr %this1, i32 0, i32 2
  %15 = load double, ptr %m_maxInValue, align 8
  %16 = load ptr, ptr %rop, align 8
  %m_maxInValue30 = getelementptr inbounds %"class.OpenColorIO_v2_4dev::RangeOpData", ptr %16, i32 0, i32 2
  %17 = load double, ptr %m_maxInValue30, align 8
  %call31 = call noundef zeroext i1 @_ZN19OpenColorIO_v2_4dev11RangeOpData12FloatsDifferEdd(double noundef %15, double noundef %17)
  br i1 %call31, label %if.then35, label %lor.lhs.false32

lor.lhs.false32:                                  ; preds = %land.lhs.true29
  %m_maxOutValue = getelementptr inbounds %"class.OpenColorIO_v2_4dev::RangeOpData", ptr %this1, i32 0, i32 4
  %18 = load double, ptr %m_maxOutValue, align 8
  %19 = load ptr, ptr %rop, align 8
  %m_maxOutValue33 = getelementptr inbounds %"class.OpenColorIO_v2_4dev::RangeOpData", ptr %19, i32 0, i32 4
  %20 = load double, ptr %m_maxOutValue33, align 8
  %call34 = call noundef zeroext i1 @_ZN19OpenColorIO_v2_4dev11RangeOpData12FloatsDifferEdd(double noundef %18, double noundef %20)
  br i1 %call34, label %if.then35, label %if.end36

if.then35:                                        ; preds = %lor.lhs.false32, %land.lhs.true29
  store i1 false, ptr %retval, align 1
  br label %return

if.end36:                                         ; preds = %lor.lhs.false32, %land.lhs.true27, %if.end25
  store i1 true, ptr %retval, align 1
  br label %return

return:                                           ; preds = %if.end36, %if.then35, %if.then24, %if.then14, %if.then3, %if.then
  %21 = load i1, ptr %retval, align 1
  ret i1 %21
}