; Function Attrs: mustprogress uwtable
define hidden noundef zeroext i1 @_ZNK19OpenColorIO_v2_4dev11RangeOpData6equalsERKNS_6OpDataE(ptr noundef nonnull align 8 dereferenceable(228) %this, ptr noundef nonnull align 8 dereferenceable(168) %other) unnamed_addr #3 align 2 {
entry:
  %call = tail call noundef zeroext i1 @_ZNK19OpenColorIO_v2_4dev6OpData6equalsERKS0_(ptr noundef nonnull align 8 dereferenceable(168) %this, ptr noundef nonnull align 8 dereferenceable(168) %other)
  br i1 %call, label %if.end, label %return

if.end:                                           ; preds = %entry
  %m_direction = getelementptr inbounds i8, ptr %this, i64 224
  %0 = load i32, ptr %m_direction, align 8
  %m_direction2 = getelementptr inbounds i8, ptr %other, i64 224
  %1 = load i32, ptr %m_direction2, align 8
  %cmp.not = icmp eq i32 %0, %1
  br i1 %cmp.not, label %if.end4, label %return

if.end4:                                          ; preds = %if.end
  %m_minInValue.i = getelementptr inbounds i8, ptr %this, i64 168
  %2 = load double, ptr %m_minInValue.i, align 8
  %conv.i = fptrunc double %2 to float
  %3 = fcmp uno float %conv.i, 0.000000e+00
  %m_minInValue.i10 = getelementptr inbounds i8, ptr %other, i64 168
  %4 = load double, ptr %m_minInValue.i10, align 8
  %conv.i11 = fptrunc double %4 to float
  %5 = fcmp uno float %conv.i11, 0.000000e+00
  %6 = xor i1 %3, %5
  br i1 %6, label %return, label %lor.lhs.false

lor.lhs.false:                                    ; preds = %if.end4
  %m_maxInValue.i = getelementptr inbounds i8, ptr %this, i64 176
  %7 = load double, ptr %m_maxInValue.i, align 8
  %conv.i12 = fptrunc double %7 to float
  %8 = fcmp uno float %conv.i12, 0.000000e+00
  %m_maxInValue.i13 = getelementptr inbounds i8, ptr %other, i64 176
  %9 = load double, ptr %m_maxInValue.i13, align 8
  %conv.i14 = fptrunc double %9 to float
  %10 = fcmp uno float %conv.i14, 0.000000e+00
  %11 = xor i1 %8, %10
  br i1 %11, label %return, label %if.end15

if.end15:                                         ; preds = %lor.lhs.false
  %brmerge = fcmp uno float %conv.i, %conv.i11
  br i1 %brmerge, label %if.end25, label %land.lhs.true18

land.lhs.true18:                                  ; preds = %if.end15
  %12 = tail call double @llvm.fabs.f64(double %2)
  %cmp.i = fcmp olt double %12, 1.000000e-03
  %div.i = fdiv double %4, %2
  %sub2.i = fsub double 1.000000e+00, %div.i
  %sub.i = fsub double %2, %4
  %sub2.sink.i = select i1 %cmp.i, double %sub.i, double %sub2.i
  %13 = tail call double @llvm.fabs.f64(double %sub2.sink.i)
  %different.0.in.i = fcmp ogt double %13, 0x3EB0C6F7A0B5ED8D
  br i1 %different.0.in.i, label %return, label %lor.lhs.false21

lor.lhs.false21:                                  ; preds = %land.lhs.true18
  %m_minOutValue = getelementptr inbounds i8, ptr %this, i64 184
  %14 = load double, ptr %m_minOutValue, align 8
  %m_minOutValue22 = getelementptr inbounds i8, ptr %other, i64 184
  %15 = load double, ptr %m_minOutValue22, align 8
  %16 = tail call double @llvm.fabs.f64(double %14)
  %cmp.i19 = fcmp olt double %16, 1.000000e-03
  %div.i20 = fdiv double %15, %14
  %sub2.i21 = fsub double 1.000000e+00, %div.i20
  %sub.i22 = fsub double %14, %15
  %sub2.sink.i23 = select i1 %cmp.i19, double %sub.i22, double %sub2.i21
  %17 = tail call double @llvm.fabs.f64(double %sub2.sink.i23)
  %different.0.in.i24 = fcmp ogt double %17, 0x3EB0C6F7A0B5ED8D
  br i1 %different.0.in.i24, label %return, label %if.end25

if.end25:                                         ; preds = %if.end15, %lor.lhs.false21
  %brmerge41 = fcmp uno float %conv.i12, %conv.i14
  br i1 %brmerge41, label %if.end36, label %land.lhs.true29

land.lhs.true29:                                  ; preds = %if.end25
  %18 = tail call double @llvm.fabs.f64(double %7)
  %cmp.i29 = fcmp olt double %18, 1.000000e-03
  %div.i30 = fdiv double %9, %7
  %sub2.i31 = fsub double 1.000000e+00, %div.i30
  %sub.i32 = fsub double %7, %9
  %sub2.sink.i33 = select i1 %cmp.i29, double %sub.i32, double %sub2.i31
  %19 = tail call double @llvm.fabs.f64(double %sub2.sink.i33)
  %different.0.in.i34 = fcmp ogt double %19, 0x3EB0C6F7A0B5ED8D
  br i1 %different.0.in.i34, label %return, label %lor.lhs.false32

lor.lhs.false32:                                  ; preds = %land.lhs.true29
  %m_maxOutValue = getelementptr inbounds i8, ptr %this, i64 192
  %20 = load double, ptr %m_maxOutValue, align 8
  %m_maxOutValue33 = getelementptr inbounds i8, ptr %other, i64 192
  %21 = load double, ptr %m_maxOutValue33, align 8
  %22 = tail call double @llvm.fabs.f64(double %20)
  %cmp.i35 = fcmp olt double %22, 1.000000e-03
  %div.i36 = fdiv double %21, %20
  %sub2.i37 = fsub double 1.000000e+00, %div.i36
  %sub.i38 = fsub double %20, %21
  %sub2.sink.i39 = select i1 %cmp.i35, double %sub.i38, double %sub2.i37
  %23 = tail call double @llvm.fabs.f64(double %sub2.sink.i39)
  %different.0.in.i40 = fcmp ogt double %23, 0x3EB0C6F7A0B5ED8D
  br i1 %different.0.in.i40, label %return, label %if.end36

if.end36:                                         ; preds = %if.end25, %lor.lhs.false32
  br label %return

return:                                           ; preds = %land.lhs.true29, %lor.lhs.false32, %land.lhs.true18, %lor.lhs.false21, %if.end4, %lor.lhs.false, %if.end, %entry, %if.end36
  %retval.0 = phi i1 [ true, %if.end36 ], [ false, %entry ], [ false, %if.end ], [ false, %lor.lhs.false ], [ false, %if.end4 ], [ false, %lor.lhs.false21 ], [ false, %land.lhs.true18 ], [ false, %lor.lhs.false32 ], [ false, %land.lhs.true29 ]
  ret i1 %retval.0
}